target datalayout = "e-m:e-p270:32:32-p271:32:32-p272:64:64-i64:64-i128:128-f80:128-n8:16:32:64-S128"
target triple = "x86_64-pc-linux-gnu"

%struct._object = type { %union.anon, ptr }
%union.anon = type { i64 }
%struct.PickleState = type { ptr, ptr, ptr, ptr, ptr, ptr, ptr, ptr, ptr, ptr, ptr, ptr, ptr, ptr, ptr, ptr, ptr, ptr, ptr }
%struct.PicklerObject = type { %struct._object, ptr, ptr, ptr, ptr, ptr, ptr, ptr, i64, i64, i32, i32, i32, i64, i64, i32, i32, i32, ptr, ptr }
%struct.anon = type { i32, i32 }
%struct.Py_buffer = type { ptr, ptr, i64, i64, i32, i32, ptr, ptr, ptr, ptr, ptr }

@.str.44 = private unnamed_addr constant [52 x i8] c"PickleBuffer can only be pickled with protocol >= 5\00", align 1
@.str.45 = private unnamed_addr constant [73 x i8] c"PickleBuffer can not be pickled when pointing to a non-contiguous buffer\00", align 1

; Function Attrs: alwaysinline nounwind uwtable
define internal i32 @_Py_IsImmortal(ptr noundef %0) #4 {
  %2 = alloca ptr, align 8
  store ptr %0, ptr %2, align 8, !tbaa !3
  %3 = load ptr, ptr %2, align 8, !tbaa !3
  %4 = getelementptr inbounds nuw %struct._object, ptr %3, i32 0, i32 0
  %5 = getelementptr inbounds nuw %struct.anon, ptr %4, i32 0, i32 0
  %6 = load i32, ptr %5, align 8, !tbaa !63
  %7 = icmp slt i32 %6, 0
  %8 = zext i1 %7 to i32
  ret i32 %8
}

; Function Attrs: alwaysinline nounwind uwtable
define internal void @Py_DECREF(ptr noundef %0) #4 {
  %2 = alloca ptr, align 8
  store ptr %0, ptr %2, align 8, !tbaa !3
  %3 = load ptr, ptr %2, align 8, !tbaa !3
  %4 = call i32 @_Py_IsImmortal(ptr noundef %3)
  %5 = icmp ne i32 %4, 0
  br i1 %5, label %6, label %7

6:                                                ; preds = %1
  br label %16

7:                                                ; preds = %1
  %8 = load ptr, ptr %2, align 8, !tbaa !3
  %9 = getelementptr inbounds nuw %struct._object, ptr %8, i32 0, i32 0
  %10 = getelementptr inbounds nuw %struct.anon, ptr %9, i32 0, i32 0
  %11 = load i32, ptr %10, align 8, !tbaa !63
  %12 = add i32 %11, -1
  store i32 %12, ptr %10, align 8, !tbaa !63
  %13 = icmp eq i32 %12, 0
  br i1 %13, label %14, label %16

14:                                               ; preds = %7
  %15 = load ptr, ptr %2, align 8, !tbaa !3
  call void @_Py_Dealloc(ptr noundef %15)
  br label %16

16:                                               ; preds = %6, %14, %7
  ret void
}

; Function Attrs: nounwind uwtable
define internal i32 @save_picklebuffer(ptr noundef %0, ptr noundef %1, ptr noundef %2) #0 {
  %4 = alloca i32, align 4
  %5 = alloca ptr, align 8
  %6 = alloca ptr, align 8
  %7 = alloca ptr, align 8
  %8 = alloca ptr, align 8
  %9 = alloca i32, align 4
  %10 = alloca i32, align 4
  %11 = alloca ptr, align 8
  %12 = alloca i8, align 1
  %13 = alloca i8, align 1
  store ptr %0, ptr %5, align 8, !tbaa !8
  store ptr %1, ptr %6, align 8, !tbaa !38
  store ptr %2, ptr %7, align 8, !tbaa !3
  %14 = load ptr, ptr %6, align 8, !tbaa !38
  %15 = getelementptr inbounds nuw %struct.PicklerObject, ptr %14, i32 0, i32 10
  %16 = load i32, ptr %15, align 8, !tbaa !53
  %17 = icmp slt i32 %16, 5
  br i1 %17, label %18, label %22

18:                                               ; preds = %3
  %19 = load ptr, ptr %5, align 8, !tbaa !8
  %20 = getelementptr inbounds nuw %struct.PickleState, ptr %19, i32 0, i32 1
  %21 = load ptr, ptr %20, align 8, !tbaa !14
  call void @PyErr_SetString(ptr noundef %21, ptr noundef @.str.44)
  store i32 -1, ptr %4, align 4
  br label %122

22:                                               ; preds = %3
  call void @llvm.lifetime.start.p0(i64 8, ptr %8) #10
  %23 = load ptr, ptr %7, align 8, !tbaa !3
  %24 = call ptr @PyPickleBuffer_GetBuffer(ptr noundef %23)
  store ptr %24, ptr %8, align 8, !tbaa !8
  %25 = load ptr, ptr %8, align 8, !tbaa !8
  %26 = icmp eq ptr %25, null
  br i1 %26, label %27, label %28

27:                                               ; preds = %22
  store i32 -1, ptr %4, align 4
  store i32 1, ptr %9, align 4
  br label %121

28:                                               ; preds = %22
  %29 = load ptr, ptr %8, align 8, !tbaa !8
  %30 = getelementptr inbounds nuw %struct.Py_buffer, ptr %29, i32 0, i32 9
  %31 = load ptr, ptr %30, align 8, !tbaa !97
  %32 = icmp ne ptr %31, null
  br i1 %32, label %37, label %33

33:                                               ; preds = %28
  %34 = load ptr, ptr %8, align 8, !tbaa !8
  %35 = call i32 @PyBuffer_IsContiguous(ptr noundef %34, i8 noundef signext 65)
  %36 = icmp ne i32 %35, 0
  br i1 %36, label %41, label %37

37:                                               ; preds = %33, %28
  %38 = load ptr, ptr %5, align 8, !tbaa !8
  %39 = getelementptr inbounds nuw %struct.PickleState, ptr %38, i32 0, i32 1
  %40 = load ptr, ptr %39, align 8, !tbaa !14
  call void @PyErr_SetString(ptr noundef %40, ptr noundef @.str.45)
  store i32 -1, ptr %4, align 4
  store i32 1, ptr %9, align 4
  br label %121

41:                                               ; preds = %33
  call void @llvm.lifetime.start.p0(i64 4, ptr %10) #10
  store i32 1, ptr %10, align 4, !tbaa !12
  %42 = load ptr, ptr %6, align 8, !tbaa !38
  %43 = getelementptr inbounds nuw %struct.PicklerObject, ptr %42, i32 0, i32 19
  %44 = load ptr, ptr %43, align 8, !tbaa !62
  %45 = icmp ne ptr %44, null
  br i1 %45, label %46, label %66

46:                                               ; preds = %41
  call void @llvm.lifetime.start.p0(i64 8, ptr %11) #10
  %47 = load ptr, ptr %6, align 8, !tbaa !38
  %48 = getelementptr inbounds nuw %struct.PicklerObject, ptr %47, i32 0, i32 19
  %49 = load ptr, ptr %48, align 8, !tbaa !62
  %50 = load ptr, ptr %7, align 8, !tbaa !3
  %51 = call ptr @PyObject_CallOneArg(ptr noundef %49, ptr noundef %50)
  store ptr %51, ptr %11, align 8, !tbaa !3
  %52 = load ptr, ptr %11, align 8, !tbaa !3
  %53 = icmp eq ptr %52, null
  br i1 %53, label %54, label %55

54:                                               ; preds = %46
  store i32 -1, ptr %4, align 4
  store i32 1, ptr %9, align 4
  br label %63

55:                                               ; preds = %46
  %56 = load ptr, ptr %11, align 8, !tbaa !3
  %57 = call i32 @PyObject_IsTrue(ptr noundef %56)
  store i32 %57, ptr %10, align 4, !tbaa !12
  %58 = load ptr, ptr %11, align 8, !tbaa !3
  call void @Py_DECREF(ptr noundef %58)
  %59 = load i32, ptr %10, align 4, !tbaa !12
  %60 = icmp eq i32 %59, -1
  br i1 %60, label %61, label %62

61:                                               ; preds = %55
  store i32 -1, ptr %4, align 4
  store i32 1, ptr %9, align 4
  br label %63

62:                                               ; preds = %55
  store i32 0, ptr %9, align 4
  br label %63

63:                                               ; preds = %62, %61, %54
  call void @llvm.lifetime.end.p0(i64 8, ptr %11) #10
  %64 = load i32, ptr %9, align 4
  switch i32 %64, label %120 [
    i32 0, label %65
  ]

65:                                               ; preds = %63
  br label %66

66:                                               ; preds = %65, %41
  %67 = load i32, ptr %10, align 4, !tbaa !12
  %68 = icmp ne i32 %67, 0
  br i1 %68, label %69, label %96

69:                                               ; preds = %66
  %70 = load ptr, ptr %8, align 8, !tbaa !8
  %71 = getelementptr inbounds nuw %struct.Py_buffer, ptr %70, i32 0, i32 4
  %72 = load i32, ptr %71, align 8, !tbaa !99
  %73 = icmp ne i32 %72, 0
  br i1 %73, label %74, label %85

74:                                               ; preds = %69
  %75 = load ptr, ptr %5, align 8, !tbaa !8
  %76 = load ptr, ptr %6, align 8, !tbaa !38
  %77 = load ptr, ptr %7, align 8, !tbaa !3
  %78 = load ptr, ptr %8, align 8, !tbaa !8
  %79 = getelementptr inbounds nuw %struct.Py_buffer, ptr %78, i32 0, i32 0
  %80 = load ptr, ptr %79, align 8, !tbaa !100
  %81 = load ptr, ptr %8, align 8, !tbaa !8
  %82 = getelementptr inbounds nuw %struct.Py_buffer, ptr %81, i32 0, i32 2
  %83 = load i64, ptr %82, align 8, !tbaa !101
  %84 = call i32 @_save_bytes_data(ptr noundef %75, ptr noundef %76, ptr noundef %77, ptr noundef %80, i64 noundef %83)
  store i32 %84, ptr %4, align 4
  store i32 1, ptr %9, align 4
  br label %120

85:                                               ; preds = %69
  %86 = load ptr, ptr %5, align 8, !tbaa !8
  %87 = load ptr, ptr %6, align 8, !tbaa !38
  %88 = load ptr, ptr %7, align 8, !tbaa !3
  %89 = load ptr, ptr %8, align 8, !tbaa !8
  %90 = getelementptr inbounds nuw %struct.Py_buffer, ptr %89, i32 0, i32 0
  %91 = load ptr, ptr %90, align 8, !tbaa !100
  %92 = load ptr, ptr %8, align 8, !tbaa !8
  %93 = getelementptr inbounds nuw %struct.Py_buffer, ptr %92, i32 0, i32 2
  %94 = load i64, ptr %93, align 8, !tbaa !101
  %95 = call i32 @_save_bytearray_data(ptr noundef %86, ptr noundef %87, ptr noundef %88, ptr noundef %91, i64 noundef %94)
  store i32 %95, ptr %4, align 4
  store i32 1, ptr %9, align 4
  br label %120

96:                                               ; preds = %66
  call void @llvm.lifetime.start.p0(i64 1, ptr %12) #10
  store i8 -105, ptr %12, align 1, !tbaa !63
  %97 = load ptr, ptr %6, align 8, !tbaa !38
  %98 = call i64 @_Pickler_Write(ptr noundef %97, ptr noundef %12, i64 noundef 1)
  %99 = icmp slt i64 %98, 0
  br i1 %99, label %100, label %101

100:                                              ; preds = %96
  store i32 -1, ptr %4, align 4
  store i32 1, ptr %9, align 4
  br label %116

101:                                              ; preds = %96
  %102 = load ptr, ptr %8, align 8, !tbaa !8
  %103 = getelementptr inbounds nuw %struct.Py_buffer, ptr %102, i32 0, i32 4
  %104 = load i32, ptr %103, align 8, !tbaa !99
  %105 = icmp ne i32 %104, 0
  br i1 %105, label %106, label %115

106:                                              ; preds = %101
  call void @llvm.lifetime.start.p0(i64 1, ptr %13) #10
  store i8 -104, ptr %13, align 1, !tbaa !63
  %107 = load ptr, ptr %6, align 8, !tbaa !38
  %108 = call i64 @_Pickler_Write(ptr noundef %107, ptr noundef %13, i64 noundef 1)
  %109 = icmp slt i64 %108, 0
  br i1 %109, label %110, label %111

110:                                              ; preds = %106
  store i32 -1, ptr %4, align 4
  store i32 1, ptr %9, align 4
  br label %112

111:                                              ; preds = %106
  store i32 0, ptr %9, align 4
  br label %112

112:                                              ; preds = %111, %110
  call void @llvm.lifetime.end.p0(i64 1, ptr %13) #10
  %113 = load i32, ptr %9, align 4
  switch i32 %113, label %116 [
    i32 0, label %114
  ]

114:                                              ; preds = %112
  br label %115

115:                                              ; preds = %114, %101
  store i32 0, ptr %9, align 4
  br label %116

116:                                              ; preds = %115, %112, %100
  call void @llvm.lifetime.end.p0(i64 1, ptr %12) #10
  %117 = load i32, ptr %9, align 4
  switch i32 %117, label %120 [
    i32 0, label %118
  ]

118:                                              ; preds = %116
  br label %119

119:                                              ; preds = %118
  store i32 0, ptr %4, align 4
  store i32 1, ptr %9, align 4
  br label %120

120:                                              ; preds = %119, %116, %85, %74, %63
  call void @llvm.lifetime.end.p0(i64 4, ptr %10) #10
  br label %121

121:                                              ; preds = %120, %37, %27
  call void @llvm.lifetime.end.p0(i64 8, ptr %8) #10
  br label %122

122:                                              ; preds = %121, %18
  %123 = load i32, ptr %4, align 4
  ret i32 %123
}