; Function Attrs: nounwind uwtable
define internal fastcc range(i32 -1, 1) i32 @save_picklebuffer(ptr noundef readonly captures(none) %0, ptr noundef %1, ptr noundef %2) unnamed_addr #0 {
  %4 = alloca i8, align 1
  %5 = alloca i8, align 1
  %6 = getelementptr inbounds nuw i8, ptr %1, i64 88
  %7 = load i32, ptr %6, align 8, !tbaa !36
  %8 = icmp slt i32 %7, 5
  br i1 %8, label %9, label %12

9:                                                ; preds = %3
  %10 = getelementptr inbounds nuw i8, ptr %0, i64 8
  %11 = load ptr, ptr %10, align 8, !tbaa !14
  tail call void @PyErr_SetString(ptr noundef %11, ptr noundef nonnull @.str.44) #13
  br label %.thread

12:                                               ; preds = %3
  %13 = tail call ptr @PyPickleBuffer_GetBuffer(ptr noundef %2) #13
  %14 = icmp eq ptr %13, null
  br i1 %14, label %.thread, label %15

15:                                               ; preds = %12
  %16 = getelementptr inbounds nuw i8, ptr %13, i64 64
  %17 = load ptr, ptr %16, align 8, !tbaa !135
  %.not = icmp eq ptr %17, null
  br i1 %.not, label %18, label %20

18:                                               ; preds = %15
  %19 = tail call i32 @PyBuffer_IsContiguous(ptr noundef nonnull %13, i8 noundef signext 65) #13
  %.not44 = icmp eq i32 %19, 0
  br i1 %.not44, label %20, label %23

20:                                               ; preds = %18, %15
  %21 = getelementptr inbounds nuw i8, ptr %0, i64 8
  %22 = load ptr, ptr %21, align 8, !tbaa !14
  tail call void @PyErr_SetString(ptr noundef %22, ptr noundef nonnull @.str.45) #13
  br label %.thread

23:                                               ; preds = %18
  %24 = getelementptr inbounds nuw i8, ptr %1, i64 144
  %25 = load ptr, ptr %24, align 8, !tbaa !43
  %.not45 = icmp eq ptr %25, null
  br i1 %.not45, label %.thread52, label %26

26:                                               ; preds = %23
  %27 = tail call ptr @PyObject_CallOneArg(ptr noundef nonnull %25, ptr noundef %2) #13
  %28 = icmp eq ptr %27, null
  br i1 %28, label %.thread, label %29

29:                                               ; preds = %26
  %30 = tail call i32 @PyObject_IsTrue(ptr noundef nonnull %27) #13
  %31 = load i32, ptr %27, align 8, !tbaa !42
  %.not.i = icmp sgt i32 %31, -1
  br i1 %.not.i, label %32, label %36

32:                                               ; preds = %29
  %33 = add nsw i32 %31, -1
  store i32 %33, ptr %27, align 8, !tbaa !42
  %34 = icmp eq i32 %33, 0
  br i1 %34, label %35, label %36

35:                                               ; preds = %32
  tail call void @_Py_Dealloc(ptr noundef nonnull %27) #13
  br label %36

36:                                               ; preds = %35, %32, %29
  switch i32 %30, label %.thread52 [
    i32 -1, label %.thread
    i32 0, label %46
  ]

.thread52:                                        ; preds = %36, %23
  %37 = getelementptr inbounds nuw i8, ptr %13, i64 32
  %38 = load i32, ptr %37, align 8, !tbaa !136
  %.not48 = icmp eq i32 %38, 0
  %39 = load ptr, ptr %13, align 8, !tbaa !137
  %40 = getelementptr inbounds nuw i8, ptr %13, i64 16
  %41 = load i64, ptr %40, align 8, !tbaa !138
  br i1 %.not48, label %44, label %42

42:                                               ; preds = %.thread52
  %43 = tail call fastcc i32 @_save_bytes_data(ptr noundef %0, ptr noundef nonnull %1, ptr noundef %2, ptr noundef %39, i64 noundef %41)
  br label %.thread

44:                                               ; preds = %.thread52
  %45 = tail call fastcc i32 @_save_bytearray_data(ptr noundef %0, ptr noundef nonnull %1, ptr noundef %2, ptr noundef %39, i64 noundef %41)
  br label %.thread

46:                                               ; preds = %36
  call void @llvm.lifetime.start.p0(i64 1, ptr nonnull %4) #13
  store i8 -105, ptr %4, align 1, !tbaa !42
  %47 = call fastcc i64 @_Pickler_Write(ptr noundef nonnull %1, ptr noundef nonnull %4, i64 noundef 1)
  %48 = icmp slt i64 %47, 0
  br i1 %48, label %.thread55, label %49

49:                                               ; preds = %46
  %50 = getelementptr inbounds nuw i8, ptr %13, i64 32
  %51 = load i32, ptr %50, align 8, !tbaa !136
  %.not47 = icmp eq i32 %51, 0
  br i1 %.not47, label %55, label %52

52:                                               ; preds = %49
  call void @llvm.lifetime.start.p0(i64 1, ptr nonnull %5) #13
  store i8 -104, ptr %5, align 1, !tbaa !42
  %53 = call fastcc i64 @_Pickler_Write(ptr noundef nonnull %1, ptr noundef nonnull %5, i64 noundef 1)
  %54 = icmp sgt i64 %53, -1
  call void @llvm.lifetime.end.p0(i64 1, ptr nonnull %5) #13
  br i1 %54, label %55, label %.thread55

.thread55:                                        ; preds = %52, %46
  call void @llvm.lifetime.end.p0(i64 1, ptr nonnull %4) #13
  br label %.thread

55:                                               ; preds = %52, %49
  call void @llvm.lifetime.end.p0(i64 1, ptr nonnull %4) #13
  br label %.thread

.thread:                                          ; preds = %36, %26, %55, %.thread55, %20, %12, %44, %42, %9
  %.0 = phi i32 [ -1, %9 ], [ -1, %20 ], [ -1, %12 ], [ %43, %42 ], [ %45, %44 ], [ %30, %36 ], [ 0, %55 ], [ -1, %.thread55 ], [ -1, %26 ]
  ret i32 %.0
}